(lp0
(S'cppflags'
p1
ccopy_reg
_reconstructor
p2
(cino.utils
SpaceList
p3
c__builtin__
list
p4
(lp5
S'-mmcu=atmega328p'
p6
aS'-DF_CPU=16000000L'
p7
aS'-DARDUINO=105'
p8
aS'-I/usr/share/arduino/hardware/arduino/cores/arduino'
p9
aS'-ffunction-sections'
p10
aS'-fdata-sections'
p11
aS'-g'
p12
aS'-Os'
p13
aS'-w'
p14
aS'-I/usr/share/arduino/hardware/arduino/variants/standard'
p15
aS'-Ilib/IRremote'
p16
aS'-I/usr/share/arduino/hardware/arduino/cores/arduino'
p17
aS'-I/usr/share/arduino/hardware/arduino/cores/arduino/avr-libc'
p18
atp19
Rp20
tp21
a(S'cxx'
p22
S'/usr/share/arduino/hardware/tools/avr/bin/avr-g++'
p23
tp24
a(S'arduino_libraries_dir'
p25
S'/usr/share/arduino/libraries'
p26
tp27
a(S'avrdude'
p28
S'/usr/share/arduino/hardware/tools/avrdude'
p29
tp30
a(S'ar'
p31
S'/usr/share/arduino/hardware/tools/avr/bin/avr-ar'
p32
tp33
a(S'names'
p34
(dp35
S'cpp'
p36
S'%s.cpp'
p37
sS'obj'
p38
S'%s.o'
p39
sS'lib'
p40
S'lib%s.a'
p41
sS'deps'
p42
S'%s.d'
p43
stp44
a(S'ldflags'
p45
g2
(g3
g4
(lp46
g6
aS'-Wl,-Os'
p47
aS'-Wl,--gc-sections'
p48
atp49
Rp50
tp51
a(S'arduino_lib_version'
p52
g2
(cino.environment
Version
p53
c__builtin__
tuple
p54
(I1
I0
I5
tp55
tp56
Rp57
tp58
a(S'objcopy'
p59
S'/usr/share/arduino/hardware/tools/avr/bin/avr-objcopy'
p60
tp61
a(S'board_models'
p62
cino.environment
BoardModels
p63
((lp64
(lp65
S'uno'
p66
a(dp67
S'bootloader'
p68
(dp69
S'extended_fuses'
p70
S'0x05'
p71
sS'high_fuses'
p72
S'0xde'
p73
sS'low_fuses'
p74
S'0xff'
p75
sS'lock_bits'
p76
S'0x0F'
p77
sS'file'
p78
S'optiboot_atmega328.hex'
p79
sS'path'
p80
S'optiboot'
p81
sS'unlock_bits'
p82
S'0x3F'
p83
ssS'upload'
p84
(dp85
S'protocol'
p86
S'arduino'
p87
sS'maximum_size'
p88
S'32256'
p89
sS'speed'
p90
S'115200'
p91
ssS'build'
p92
(dp93
S'core'
p94
S'arduino'
p95
sS'mcu'
p96
S'atmega328p'
p97
sS'f_cpu'
p98
S'16000000L'
p99
sS'variant'
p100
S'standard'
p101
ssS'name'
p102
S'Arduino Uno'
p103
saa(lp104
S'alamode'
p105
a(dp106
S'bootloader'
p107
(dp108
S'extended_fuses'
p109
S'0x05'
p110
sS'high_fuses'
p111
S'0xde'
p112
sS'low_fuses'
p113
S'0xff'
p114
sS'lock_bits'
p115
S'0x0F'
p116
sS'file'
p117
S'optiboot_atmega328.hex'
p118
sS'path'
p119
S'optiboot'
p120
sS'unlock_bits'
p121
S'0x3F'
p122
ssS'upload'
p123
(dp124
S'protocol'
p125
S'alamode'
p126
sS'maximum_size'
p127
S'32256'
p128
sS'speed'
p129
S'115200'
p130
ssS'build'
p131
(dp132
S'core'
p133
S'arduino'
p134
sS'mcu'
p135
S'atmega328p'
p136
sS'f_cpu'
p137
S'16000000L'
p138
sS'variant'
p139
S'standard'
p140
ssS'name'
p141
S'AlaMode'
p142
saa(lp143
S'atmega328'
p144
a(dp145
S'bootloader'
p146
(dp147
S'extended_fuses'
p148
S'0x05'
p149
sS'high_fuses'
p150
S'0xDA'
p151
sS'low_fuses'
p152
S'0xFF'
p153
sS'lock_bits'
p154
S'0x0F'
p155
sS'file'
p156
S'ATmegaBOOT_168_atmega328.hex'
p157
sS'path'
p158
S'atmega'
p159
sS'unlock_bits'
p160
S'0x3F'
p161
ssS'upload'
p162
(dp163
S'protocol'
p164
S'arduino'
p165
sS'maximum_size'
p166
S'30720'
p167
sS'speed'
p168
S'57600'
p169
ssS'build'
p170
(dp171
S'core'
p172
S'arduino'
p173
sS'mcu'
p174
S'atmega328p'
p175
sS'f_cpu'
p176
S'16000000L'
p177
sS'variant'
p178
S'standard'
p179
ssS'name'
p180
S'Arduino Duemilanove w/ ATmega328'
p181
saa(lp182
S'diecimila'
p183
a(dp184
S'bootloader'
p185
(dp186
S'extended_fuses'
p187
S'0x00'
p188
sS'high_fuses'
p189
S'0xdd'
p190
sS'low_fuses'
p191
S'0xff'
p192
sS'lock_bits'
p193
S'0x0F'
p194
sS'file'
p195
S'ATmegaBOOT_168_diecimila.hex'
p196
sS'path'
p197
S'atmega'
p198
sS'unlock_bits'
p199
S'0x3F'
p200
ssS'upload'
p201
(dp202
S'protocol'
p203
S'arduino'
p204
sS'maximum_size'
p205
S'14336'
p206
sS'speed'
p207
S'19200'
p208
ssS'build'
p209
(dp210
S'core'
p211
S'arduino'
p212
sS'mcu'
p213
S'atmega168'
p214
sS'f_cpu'
p215
S'16000000L'
p216
sS'variant'
p217
S'standard'
p218
ssS'name'
p219
S'Arduino Diecimila or Duemilanove w/ ATmega168'
p220
saa(lp221
S'nano328'
p222
a(dp223
S'bootloader'
p224
(dp225
S'extended_fuses'
p226
S'0x05'
p227
sS'high_fuses'
p228
S'0xDA'
p229
sS'low_fuses'
p230
S'0xFF'
p231
sS'lock_bits'
p232
S'0x0F'
p233
sS'file'
p234
S'ATmegaBOOT_168_atmega328.hex'
p235
sS'path'
p236
S'atmega'
p237
sS'unlock_bits'
p238
S'0x3F'
p239
ssS'upload'
p240
(dp241
S'protocol'
p242
S'arduino'
p243
sS'maximum_size'
p244
S'30720'
p245
sS'speed'
p246
S'57600'
p247
ssS'build'
p248
(dp249
S'core'
p250
S'arduino'
p251
sS'mcu'
p252
S'atmega328p'
p253
sS'f_cpu'
p254
S'16000000L'
p255
sS'variant'
p256
S'eightanaloginputs'
p257
ssS'name'
p258
S'Arduino Nano w/ ATmega328'
p259
saa(lp260
S'nano'
p261
a(dp262
S'bootloader'
p263
(dp264
S'extended_fuses'
p265
S'0x00'
p266
sS'high_fuses'
p267
S'0xdd'
p268
sS'low_fuses'
p269
S'0xff'
p270
sS'lock_bits'
p271
S'0x0F'
p272
sS'file'
p273
S'ATmegaBOOT_168_diecimila.hex'
p274
sS'path'
p275
S'atmega'
p276
sS'unlock_bits'
p277
S'0x3F'
p278
ssS'upload'
p279
(dp280
S'protocol'
p281
S'arduino'
p282
sS'maximum_size'
p283
S'14336'
p284
sS'speed'
p285
S'19200'
p286
ssS'build'
p287
(dp288
S'core'
p289
S'arduino'
p290
sS'mcu'
p291
S'atmega168'
p292
sS'f_cpu'
p293
S'16000000L'
p294
sS'variant'
p295
S'eightanaloginputs'
p296
ssS'name'
p297
S'Arduino Nano w/ ATmega168'
p298
saa(lp299
S'mega2560'
p300
a(dp301
S'bootloader'
p302
(dp303
S'extended_fuses'
p304
S'0xFD'
p305
sS'high_fuses'
p306
S'0xD8'
p307
sS'low_fuses'
p308
S'0xFF'
p309
sS'lock_bits'
p310
S'0x0F'
p311
sS'file'
p312
S'stk500boot_v2_mega2560.hex'
p313
sS'path'
p314
S'stk500v2'
p315
sS'unlock_bits'
p316
S'0x3F'
p317
ssS'upload'
p318
(dp319
S'protocol'
p320
S'stk500v2'
p321
sS'maximum_size'
p322
S'258048'
p323
sS'speed'
p324
S'115200'
p325
ssS'build'
p326
(dp327
S'core'
p328
S'arduino'
p329
sS'mcu'
p330
S'atmega2560'
p331
sS'f_cpu'
p332
S'16000000L'
p333
sS'variant'
p334
S'mega'
p335
ssS'name'
p336
S'Arduino Mega 2560 or Mega ADK'
p337
saa(lp338
S'mega'
p339
a(dp340
S'bootloader'
p341
(dp342
S'extended_fuses'
p343
S'0xF5'
p344
sS'high_fuses'
p345
S'0xDA'
p346
sS'low_fuses'
p347
S'0xFF'
p348
sS'lock_bits'
p349
S'0x0F'
p350
sS'file'
p351
S'ATmegaBOOT_168_atmega1280.hex'
p352
sS'path'
p353
S'atmega'
p354
sS'unlock_bits'
p355
S'0x3F'
p356
ssS'upload'
p357
(dp358
S'protocol'
p359
S'arduino'
p360
sS'maximum_size'
p361
S'126976'
p362
sS'speed'
p363
S'57600'
p364
ssS'build'
p365
(dp366
S'core'
p367
S'arduino'
p368
sS'mcu'
p369
S'atmega1280'
p370
sS'f_cpu'
p371
S'16000000L'
p372
sS'variant'
p373
S'mega'
p374
ssS'name'
p375
S'Arduino Mega (ATmega1280)'
p376
saa(lp377
S'mini328'
p378
a(dp379
S'bootloader'
p380
(dp381
S'extended_fuses'
p382
S'0x05'
p383
sS'high_fuses'
p384
S'0xd8'
p385
sS'low_fuses'
p386
S'0xff'
p387
sS'lock_bits'
p388
S'0x0F'
p389
sS'file'
p390
S'optiboot_atmega328-Mini.hex'
p391
sS'path'
p392
S'optiboot'
p393
sS'unlock_bits'
p394
S'0x3F'
p395
ssS'upload'
p396
(dp397
S'protocol'
p398
S'stk500'
p399
sS'maximum_size'
p400
S'28672'
p401
sS'speed'
p402
S'115200'
p403
ssS'build'
p404
(dp405
S'core'
p406
S'arduino'
p407
sS'mcu'
p408
S'atmega328p'
p409
sS'f_cpu'
p410
S'16000000L'
p411
sS'variant'
p412
S'eightanaloginputs'
p413
ssS'name'
p414
S'Arduino Mini w/ ATmega328'
p415
saa(lp416
S'mini'
p417
a(dp418
S'bootloader'
p419
(dp420
S'extended_fuses'
p421
S'0x00'
p422
sS'high_fuses'
p423
S'0xdd'
p424
sS'low_fuses'
p425
S'0xff'
p426
sS'lock_bits'
p427
S'0x0F'
p428
sS'file'
p429
S'ATmegaBOOT_168_ng.hex'
p430
sS'path'
p431
S'atmega'
p432
sS'unlock_bits'
p433
S'0x3F'
p434
ssS'upload'
p435
(dp436
S'protocol'
p437
S'arduino'
p438
sS'maximum_size'
p439
S'14336'
p440
sS'speed'
p441
S'19200'
p442
ssS'build'
p443
(dp444
S'core'
p445
S'arduino'
p446
sS'mcu'
p447
S'atmega168'
p448
sS'f_cpu'
p449
S'16000000L'
p450
sS'variant'
p451
S'eightanaloginputs'
p452
ssS'name'
p453
S'Arduino Mini w/ ATmega168'
p454
saa(lp455
S'ethernet'
p456
a(dp457
S'bootloader'
p458
(dp459
S'extended_fuses'
p460
S'0x05'
p461
sS'high_fuses'
p462
S'0xde'
p463
sS'low_fuses'
p464
S'0xff'
p465
sS'lock_bits'
p466
S'0x0F'
p467
sS'file'
p468
S'optiboot_atmega328.hex'
p469
sS'path'
p470
S'optiboot'
p471
sS'unlock_bits'
p472
S'0x3F'
p473
ssS'upload'
p474
(dp475
S'protocol'
p476
S'arduino'
p477
sS'maximum_size'
p478
S'32256'
p479
sS'speed'
p480
S'115200'
p481
ssS'build'
p482
(dp483
S'variant'
p484
S'standard'
p485
sS'mcu'
p486
S'atmega328p'
p487
sS'f_cpu'
p488
S'16000000L'
p489
sS'core'
p490
S'arduino'
p491
ssS'name'
p492
S'Arduino Ethernet'
p493
saa(lp494
S'fio'
p495
a(dp496
S'bootloader'
p497
(dp498
S'extended_fuses'
p499
S'0x05'
p500
sS'high_fuses'
p501
S'0xDA'
p502
sS'low_fuses'
p503
S'0xFF'
p504
sS'lock_bits'
p505
S'0x0F'
p506
sS'file'
p507
S'ATmegaBOOT_168_atmega328_pro_8MHz.hex'
p508
sS'path'
p509
S'arduino:atmega'
p510
sS'unlock_bits'
p511
S'0x3F'
p512
ssS'upload'
p513
(dp514
S'protocol'
p515
S'arduino'
p516
sS'maximum_size'
p517
S'30720'
p518
sS'speed'
p519
S'57600'
p520
ssS'build'
p521
(dp522
S'core'
p523
S'arduino'
p524
sS'mcu'
p525
S'atmega328p'
p526
sS'f_cpu'
p527
S'8000000L'
p528
sS'variant'
p529
S'eightanaloginputs'
p530
ssS'name'
p531
S'Arduino Fio'
p532
saa(lp533
S'bt328'
p534
a(dp535
S'bootloader'
p536
(dp537
S'extended_fuses'
p538
S'0x05'
p539
sS'high_fuses'
p540
S'0xd8'
p541
sS'low_fuses'
p542
S'0xff'
p543
sS'lock_bits'
p544
S'0x0F'
p545
sS'file'
p546
S'ATmegaBOOT_168_atmega328_bt.hex'
p547
sS'path'
p548
S'bt'
p549
sS'unlock_bits'
p550
S'0x3F'
p551
ssS'upload'
p552
(dp553
S'protocol'
p554
S'arduino'
p555
sS'maximum_size'
p556
S'28672'
p557
sS'speed'
p558
S'19200'
p559
sS'disable_flushing'
p560
S'true'
p561
ssS'build'
p562
(dp563
S'core'
p564
S'arduino'
p565
sS'mcu'
p566
S'atmega328p'
p567
sS'f_cpu'
p568
S'16000000L'
p569
sS'variant'
p570
S'eightanaloginputs'
p571
ssS'name'
p572
S'Arduino BT w/ ATmega328'
p573
saa(lp574
S'bt'
p575
a(dp576
S'bootloader'
p577
(dp578
S'extended_fuses'
p579
S'0x00'
p580
sS'high_fuses'
p581
S'0xdd'
p582
sS'low_fuses'
p583
S'0xff'
p584
sS'lock_bits'
p585
S'0x0F'
p586
sS'file'
p587
S'ATmegaBOOT_168.hex'
p588
sS'path'
p589
S'bt'
p590
sS'unlock_bits'
p591
S'0x3F'
p592
ssS'upload'
p593
(dp594
S'protocol'
p595
S'arduino'
p596
sS'maximum_size'
p597
S'14336'
p598
sS'speed'
p599
S'19200'
p600
sS'disable_flushing'
p601
S'true'
p602
ssS'build'
p603
(dp604
S'core'
p605
S'arduino'
p606
sS'mcu'
p607
S'atmega168'
p608
sS'f_cpu'
p609
S'16000000L'
p610
sS'variant'
p611
S'eightanaloginputs'
p612
ssS'name'
p613
S'Arduino BT w/ ATmega168'
p614
saa(lp615
S'lilypad328'
p616
a(dp617
S'bootloader'
p618
(dp619
S'extended_fuses'
p620
S'0x05'
p621
sS'high_fuses'
p622
S'0xDA'
p623
sS'low_fuses'
p624
S'0xFF'
p625
sS'lock_bits'
p626
S'0x0F'
p627
sS'file'
p628
S'ATmegaBOOT_168_atmega328_pro_8MHz.hex'
p629
sS'path'
p630
S'atmega'
p631
sS'unlock_bits'
p632
S'0x3F'
p633
ssS'upload'
p634
(dp635
S'protocol'
p636
S'arduino'
p637
sS'maximum_size'
p638
S'30720'
p639
sS'speed'
p640
S'57600'
p641
ssS'build'
p642
(dp643
S'core'
p644
S'arduino'
p645
sS'mcu'
p646
S'atmega328p'
p647
sS'f_cpu'
p648
S'8000000L'
p649
sS'variant'
p650
S'standard'
p651
ssS'name'
p652
S'LilyPad Arduino w/ ATmega328'
p653
saa(lp654
S'lilypad'
p655
a(dp656
S'bootloader'
p657
(dp658
S'extended_fuses'
p659
S'0x00'
p660
sS'high_fuses'
p661
S'0xdd'
p662
sS'low_fuses'
p663
S'0xe2'
p664
sS'lock_bits'
p665
S'0x0F'
p666
sS'file'
p667
S'LilyPadBOOT_168.hex'
p668
sS'path'
p669
S'lilypad'
p670
sS'unlock_bits'
p671
S'0x3F'
p672
ssS'upload'
p673
(dp674
S'protocol'
p675
S'arduino'
p676
sS'maximum_size'
p677
S'14336'
p678
sS'speed'
p679
S'19200'
p680
ssS'build'
p681
(dp682
S'core'
p683
S'arduino'
p684
sS'mcu'
p685
S'atmega168'
p686
sS'f_cpu'
p687
S'8000000L'
p688
sS'variant'
p689
S'standard'
p690
ssS'name'
p691
S'LilyPad Arduino w/ ATmega168'
p692
saa(lp693
S'pro5v328'
p694
a(dp695
S'bootloader'
p696
(dp697
S'extended_fuses'
p698
S'0x05'
p699
sS'high_fuses'
p700
S'0xDA'
p701
sS'low_fuses'
p702
S'0xFF'
p703
sS'lock_bits'
p704
S'0x0F'
p705
sS'file'
p706
S'ATmegaBOOT_168_atmega328.hex'
p707
sS'path'
p708
S'atmega'
p709
sS'unlock_bits'
p710
S'0x3F'
p711
ssS'upload'
p712
(dp713
S'protocol'
p714
S'arduino'
p715
sS'maximum_size'
p716
S'30720'
p717
sS'speed'
p718
S'57600'
p719
ssS'build'
p720
(dp721
S'core'
p722
S'arduino'
p723
sS'mcu'
p724
S'atmega328p'
p725
sS'f_cpu'
p726
S'16000000L'
p727
sS'variant'
p728
S'standard'
p729
ssS'name'
p730
S'Arduino Pro or Pro Mini (5V, 16 MHz) w/ ATmega328'
p731
saa(lp732
S'pro5v'
p733
a(dp734
S'bootloader'
p735
(dp736
S'extended_fuses'
p737
S'0x00'
p738
sS'high_fuses'
p739
S'0xdd'
p740
sS'low_fuses'
p741
S'0xff'
p742
sS'lock_bits'
p743
S'0x0F'
p744
sS'file'
p745
S'ATmegaBOOT_168_diecimila.hex'
p746
sS'path'
p747
S'atmega'
p748
sS'unlock_bits'
p749
S'0x3F'
p750
ssS'upload'
p751
(dp752
S'protocol'
p753
S'arduino'
p754
sS'maximum_size'
p755
S'14336'
p756
sS'speed'
p757
S'19200'
p758
ssS'build'
p759
(dp760
S'core'
p761
S'arduino'
p762
sS'mcu'
p763
S'atmega168'
p764
sS'f_cpu'
p765
S'16000000L'
p766
sS'variant'
p767
S'standard'
p768
ssS'name'
p769
S'Arduino Pro or Pro Mini (5V, 16 MHz) w/ ATmega168'
p770
saa(lp771
S'pro328'
p772
a(dp773
S'bootloader'
p774
(dp775
S'extended_fuses'
p776
S'0x05'
p777
sS'high_fuses'
p778
S'0xDA'
p779
sS'low_fuses'
p780
S'0xFF'
p781
sS'lock_bits'
p782
S'0x0F'
p783
sS'file'
p784
S'ATmegaBOOT_168_atmega328_pro_8MHz.hex'
p785
sS'path'
p786
S'atmega'
p787
sS'unlock_bits'
p788
S'0x3F'
p789
ssS'upload'
p790
(dp791
S'protocol'
p792
S'arduino'
p793
sS'maximum_size'
p794
S'30720'
p795
sS'speed'
p796
S'57600'
p797
ssS'build'
p798
(dp799
S'core'
p800
S'arduino'
p801
sS'mcu'
p802
S'atmega328p'
p803
sS'f_cpu'
p804
S'8000000L'
p805
sS'variant'
p806
S'standard'
p807
ssS'name'
p808
S'Arduino Pro or Pro Mini (3.3V, 8 MHz) w/ ATmega328'
p809
saa(lp810
S'pro'
p811
a(dp812
S'bootloader'
p813
(dp814
S'extended_fuses'
p815
S'0x00'
p816
sS'high_fuses'
p817
S'0xdd'
p818
sS'low_fuses'
p819
S'0xc6'
p820
sS'lock_bits'
p821
S'0x0F'
p822
sS'file'
p823
S'ATmegaBOOT_168_pro_8MHz.hex'
p824
sS'path'
p825
S'atmega'
p826
sS'unlock_bits'
p827
S'0x3F'
p828
ssS'upload'
p829
(dp830
S'protocol'
p831
S'arduino'
p832
sS'maximum_size'
p833
S'14336'
p834
sS'speed'
p835
S'19200'
p836
ssS'build'
p837
(dp838
S'core'
p839
S'arduino'
p840
sS'mcu'
p841
S'atmega168'
p842
sS'f_cpu'
p843
S'8000000L'
p844
sS'variant'
p845
S'standard'
p846
ssS'name'
p847
S'Arduino Pro or Pro Mini (3.3V, 8 MHz) w/ ATmega168'
p848
saa(lp849
S'atmega168'
p850
a(dp851
S'bootloader'
p852
(dp853
S'extended_fuses'
p854
S'0x00'
p855
sS'high_fuses'
p856
S'0xdd'
p857
sS'low_fuses'
p858
S'0xff'
p859
sS'lock_bits'
p860
S'0x0F'
p861
sS'file'
p862
S'ATmegaBOOT_168_ng.hex'
p863
sS'path'
p864
S'atmega'
p865
sS'unlock_bits'
p866
S'0x3F'
p867
ssS'upload'
p868
(dp869
S'protocol'
p870
S'arduino'
p871
sS'maximum_size'
p872
S'14336'
p873
sS'speed'
p874
S'19200'
p875
ssS'build'
p876
(dp877
S'core'
p878
S'arduino'
p879
sS'mcu'
p880
S'atmega168'
p881
sS'f_cpu'
p882
S'16000000L'
p883
sS'variant'
p884
S'standard'
p885
ssS'name'
p886
S'Arduino NG or older w/ ATmega168'
p887
saa(lp888
S'atmega8'
p889
a(dp890
S'bootloader'
p891
(dp892
S'high_fuses'
p893
S'0xca'
p894
sS'low_fuses'
p895
S'0xdf'
p896
sS'lock_bits'
p897
S'0x0F'
p898
sS'file'
p899
S'ATmegaBOOT.hex'
p900
sS'path'
p901
S'atmega8'
p902
sS'unlock_bits'
p903
S'0x3F'
p904
ssS'upload'
p905
(dp906
S'protocol'
p907
S'arduino'
p908
sS'maximum_size'
p909
S'7168'
p910
sS'speed'
p911
S'19200'
p912
ssS'build'
p913
(dp914
S'core'
p915
S'arduino'
p916
sS'mcu'
p917
S'atmega8'
p918
sS'f_cpu'
p919
S'16000000L'
p920
sS'variant'
p921
S'standard'
p922
ssS'name'
p923
S'Arduino NG or older w/ ATmega8'
p924
saatp925
Rp926
(dp927
S'default'
p928
S'uno'
p929
sbtp930
a(S'used_libs'
p931
(lp932
S'lib/IRremote'
p933
aS'/usr/share/arduino/hardware/arduino/cores/arduino'
p934
atp935
a(S'make'
p936
S'/usr/share/arduino/hardware/tools/avr/bin/make'
p937
tp938
a(S'build_dir'
p939
S'.build/uno'
p940
tp941
a(S'cc'
p942
S'/usr/share/arduino/hardware/tools/avr/bin/avr-gcc'
p943
tp944
a(S'cflags'
p945
g2
(g3
g4
(lp946
tp947
Rp948
tp949
a(S'cxxflags'
p950
g2
(g3
g4
(lp951
S'-fno-exceptions'
p952
atp953
Rp954
tp955
a(S'arduino_variants_dir'
p956
S'/usr/share/arduino/hardware/arduino/variants'
p957
tp958
a(S'stty'
p959
S'/bin/stty'
p960
tp961
a(S'version.txt'
p962
S'/usr/share/arduino/lib/version.txt'
p963
tp964
a(S'arduino_core_dir'
p965
g934
tp966
a(S'boards.txt'
p967
S'/usr/share/arduino/hardware/arduino/boards.txt'
p968
tp969
a(S'avrdude.conf'
p970
S'/usr/share/arduino/hardware/tools/avrdude.conf'
p971
tp972
a(g42
g2
(g3
g4
(lp973
S'.build/uno/src/dependencies.d'
p974
aS'.build/uno/arduino/dependencies.d'
p975
aS'.build/uno/IRremote/dependencies.d'
p976
atp977
Rp978
tp979
a.